target datalayout = "e-m:e-p270:32:32-p271:32:32-p272:64:64-i64:64-i128:128-f80:128-n8:16:32:64-S128"
target triple = "x86_64-pc-linux-gnu"

@WAYLAND_wl_proxy_get_id = external global ptr, align 8
@.str.24 = private unnamed_addr constant [132 x i8] c". In zwp_primary_selection_offer_v1_listener . primary_selection_offer_handle_offer on primary_selection_offer 0x%08x for MIME '%s'\00", align 1

; Function Attrs: nounwind uwtable
define internal void @primary_selection_offer_handle_offer(ptr noundef %0, ptr noundef %1, ptr noundef %2) #0 {
  %4 = alloca ptr, align 8
  %5 = alloca ptr, align 8
  %6 = alloca ptr, align 8
  %7 = alloca ptr, align 8
  store ptr %0, ptr %4, align 8
  store ptr %1, ptr %5, align 8
  store ptr %2, ptr %6, align 8
  call void @llvm.lifetime.start.p0(i64 8, ptr %7) #10
  %8 = load ptr, ptr %4, align 8
  store ptr %8, ptr %7, align 8
  %9 = load ptr, ptr %7, align 8
  %10 = load ptr, ptr %6, align 8
  %11 = call zeroext i1 @Wayland_primary_selection_offer_add_mime(ptr noundef %9, ptr noundef %10)
  %12 = load ptr, ptr %5, align 8
  %13 = icmp ne ptr %12, null
  br i1 %13, label %14, label %18

14:                                               ; preds = %3
  %15 = load ptr, ptr @WAYLAND_wl_proxy_get_id, align 8
  %16 = load ptr, ptr %5, align 8
  %17 = call i32 %15(ptr noundef %16)
  br label %19

18:                                               ; preds = %3
  br label %19

19:                                               ; preds = %18, %14
  %20 = phi i32 [ %17, %14 ], [ -1, %18 ]
  %21 = load ptr, ptr %6, align 8
  call void (i32, ptr, ...) @SDL_LogTrace_REAL(i32 noundef 7, ptr noundef @.str.24, i32 noundef %20, ptr noundef %21)
  call void @llvm.lifetime.end.p0(i64 8, ptr %7) #10
  ret void
}