; Function Attrs: nounwind uwtable
define internal void @primary_selection_offer_handle_offer(ptr noundef %0, ptr noundef %1, ptr noundef %2) #0 {
  %4 = tail call zeroext i1 @Wayland_primary_selection_offer_add_mime(ptr noundef %0, ptr noundef %2) #12
  %.not = icmp eq ptr %1, null
  br i1 %.not, label %8, label %5

5:                                                ; preds = %3
  %6 = load ptr, ptr @WAYLAND_wl_proxy_get_id, align 8
  %7 = tail call i32 %6(ptr noundef nonnull %1) #12
  br label %8

8:                                                ; preds = %3, %5
  %9 = phi i32 [ %7, %5 ], [ -1, %3 ]
  tail call void (i32, ptr, ...) @SDL_LogTrace_REAL(i32 noundef 7, ptr noundef nonnull @.str.24, i32 noundef %9, ptr noundef %2) #12
  ret void
}